target datalayout = "e-m:e-p270:32:32-p271:32:32-p272:64:64-i64:64-i128:128-f80:128-n8:16:32:64-S128"
target triple = "x86_64-pc-linux-gnu"

%struct.re_pattern_buffer = type { ptr, ptr, ptr, i32, i32, ptr, ptr, i32, i32, i32, i32, i32, i32, i32, i32, i32, ptr, ptr, i32, ptr, i32, ptr, i32, i32, i32, i32, i32, i32, ptr, ptr, [256 x i8], i32, i32, i32, ptr }
%struct.RegexExt = type { ptr, ptr, ptr, i32, i32, ptr }

; Function Attrs: nounwind uwtable
define dso_local ptr @onig_get_regex_ext(ptr noundef %0) #0 {
  %2 = alloca ptr, align 8
  %3 = alloca ptr, align 8
  %4 = alloca ptr, align 8
  %5 = alloca i32, align 4
  store ptr %0, ptr %3, align 8, !tbaa !8
  %6 = load ptr, ptr %3, align 8, !tbaa !8
  %7 = getelementptr inbounds nuw %struct.re_pattern_buffer, ptr %6, i32 0, i32 34
  %8 = load ptr, ptr %7, align 8, !tbaa !11
  %9 = icmp eq ptr %8, null
  br i1 %9, label %10, label %34

10:                                               ; preds = %1
  call void @llvm.lifetime.start.p0(i64 8, ptr %4) #9
  %11 = call noalias ptr @malloc(i64 noundef 40) #10
  store ptr %11, ptr %4, align 8, !tbaa !15
  %12 = load ptr, ptr %4, align 8, !tbaa !15
  %13 = icmp eq ptr %12, null
  br i1 %13, label %14, label %15

14:                                               ; preds = %10
  store ptr null, ptr %2, align 8
  store i32 1, ptr %5, align 4
  br label %31

15:                                               ; preds = %10
  %16 = load ptr, ptr %4, align 8, !tbaa !15
  %17 = getelementptr inbounds nuw %struct.RegexExt, ptr %16, i32 0, i32 0
  store ptr null, ptr %17, align 8, !tbaa !16
  %18 = load ptr, ptr %4, align 8, !tbaa !15
  %19 = getelementptr inbounds nuw %struct.RegexExt, ptr %18, i32 0, i32 1
  store ptr null, ptr %19, align 8, !tbaa !18
  %20 = load ptr, ptr %4, align 8, !tbaa !15
  %21 = getelementptr inbounds nuw %struct.RegexExt, ptr %20, i32 0, i32 2
  store ptr null, ptr %21, align 8, !tbaa !19
  %22 = load ptr, ptr %4, align 8, !tbaa !15
  %23 = getelementptr inbounds nuw %struct.RegexExt, ptr %22, i32 0, i32 3
  store i32 0, ptr %23, align 8, !tbaa !20
  %24 = load ptr, ptr %4, align 8, !tbaa !15
  %25 = getelementptr inbounds nuw %struct.RegexExt, ptr %24, i32 0, i32 4
  store i32 0, ptr %25, align 4, !tbaa !21
  %26 = load ptr, ptr %4, align 8, !tbaa !15
  %27 = getelementptr inbounds nuw %struct.RegexExt, ptr %26, i32 0, i32 5
  store ptr null, ptr %27, align 8, !tbaa !22
  %28 = load ptr, ptr %4, align 8, !tbaa !15
  %29 = load ptr, ptr %3, align 8, !tbaa !8
  %30 = getelementptr inbounds nuw %struct.re_pattern_buffer, ptr %29, i32 0, i32 34
  store ptr %28, ptr %30, align 8, !tbaa !11
  store i32 0, ptr %5, align 4
  br label %31

31:                                               ; preds = %15, %14
  call void @llvm.lifetime.end.p0(i64 8, ptr %4) #9
  %32 = load i32, ptr %5, align 4
  switch i32 %32, label %40 [
    i32 0, label %33
    i32 1, label %38
  ]

33:                                               ; preds = %31
  br label %34

34:                                               ; preds = %33, %1
  %35 = load ptr, ptr %3, align 8, !tbaa !8
  %36 = getelementptr inbounds nuw %struct.re_pattern_buffer, ptr %35, i32 0, i32 34
  %37 = load ptr, ptr %36, align 8, !tbaa !11
  store ptr %37, ptr %2, align 8
  br label %38

38:                                               ; preds = %34, %31
  %39 = load ptr, ptr %2, align 8
  ret ptr %39

40:                                               ; preds = %31
  unreachable
}

; Function Attrs: nounwind uwtable
define dso_local i32 @onig_ext_set_pattern(ptr noundef %0, ptr noundef %1, ptr noundef %2) #0 {
  %4 = alloca i32, align 4
  %5 = alloca ptr, align 8
  %6 = alloca ptr, align 8
  %7 = alloca ptr, align 8
  %8 = alloca ptr, align 8
  %9 = alloca ptr, align 8
  %10 = alloca i32, align 4
  store ptr %0, ptr %5, align 8, !tbaa !8
  store ptr %1, ptr %6, align 8, !tbaa !23
  store ptr %2, ptr %7, align 8, !tbaa !23
  call void @llvm.lifetime.start.p0(i64 8, ptr %8) #9
  call void @llvm.lifetime.start.p0(i64 8, ptr %9) #9
  %11 = load ptr, ptr %5, align 8, !tbaa !8
  %12 = call ptr @onig_get_regex_ext(ptr noundef %11)
  store ptr %12, ptr %8, align 8, !tbaa !15
  %13 = load ptr, ptr %8, align 8, !tbaa !15
  %14 = icmp eq ptr %13, null
  br i1 %14, label %15, label %16

15:                                               ; preds = %3
  store i32 -5, ptr %4, align 4
  store i32 1, ptr %10, align 4
  br label %39

16:                                               ; preds = %3
  %17 = load ptr, ptr %5, align 8, !tbaa !8
  %18 = getelementptr inbounds nuw %struct.re_pattern_buffer, ptr %17, i32 0, i32 17
  %19 = load ptr, ptr %18, align 8, !tbaa !24
  %20 = load ptr, ptr %6, align 8, !tbaa !23
  %21 = load ptr, ptr %7, align 8, !tbaa !23
  %22 = call ptr @onigenc_strdup(ptr noundef %19, ptr noundef %20, ptr noundef %21)
  store ptr %22, ptr %9, align 8, !tbaa !23
  %23 = load ptr, ptr %9, align 8, !tbaa !23
  %24 = icmp eq ptr %23, null
  br i1 %24, label %25, label %26

25:                                               ; preds = %16
  store i32 -5, ptr %4, align 4
  store i32 1, ptr %10, align 4
  br label %39

26:                                               ; preds = %16
  %27 = load ptr, ptr %9, align 8, !tbaa !23
  %28 = load ptr, ptr %8, align 8, !tbaa !15
  %29 = getelementptr inbounds nuw %struct.RegexExt, ptr %28, i32 0, i32 0
  store ptr %27, ptr %29, align 8, !tbaa !16
  %30 = load ptr, ptr %9, align 8, !tbaa !23
  %31 = load ptr, ptr %7, align 8, !tbaa !23
  %32 = load ptr, ptr %6, align 8, !tbaa !23
  %33 = ptrtoint ptr %31 to i64
  %34 = ptrtoint ptr %32 to i64
  %35 = sub i64 %33, %34
  %36 = getelementptr inbounds i8, ptr %30, i64 %35
  %37 = load ptr, ptr %8, align 8, !tbaa !15
  %38 = getelementptr inbounds nuw %struct.RegexExt, ptr %37, i32 0, i32 1
  store ptr %36, ptr %38, align 8, !tbaa !18
  store i32 0, ptr %4, align 4
  store i32 1, ptr %10, align 4
  br label %39

39:                                               ; preds = %26, %25, %15
  call void @llvm.lifetime.end.p0(i64 8, ptr %9) #9
  call void @llvm.lifetime.end.p0(i64 8, ptr %8) #9
  %40 = load i32, ptr %4, align 4
  ret i32 %40
}